target datalayout = "e-m:e-p270:32:32-p271:32:32-p272:64:64-i64:64-i128:128-f80:128-n8:16:32:64-S128"
target triple = "x86_64-pc-linux-gnu"

%struct.tm = type { i32, i32, i32, i32, i32, i32, i32, i32, i32, i64, ptr }

@__const.Convert.DaysInMonth = private unnamed_addr constant [12 x i8] c"\1F\00\1F\1E\1F\1E\1F\1F\1E\1F\1E\1F", align 1

; Function Attrs: nounwind uwtable
define internal i64 @Convert(i64 noundef %0, i64 noundef %1, i64 noundef %2, i64 noundef %3, i64 noundef %4, i64 noundef %5, i64 noundef %6, i32 noundef %7) #0 {
  %9 = alloca i64, align 8
  %10 = alloca i64, align 8
  %11 = alloca i64, align 8
  %12 = alloca i64, align 8
  %13 = alloca i64, align 8
  %14 = alloca i64, align 8
  %15 = alloca i64, align 8
  %16 = alloca i64, align 8
  %17 = alloca i32, align 4
  %18 = alloca [12 x i8], align 1
  %19 = alloca i64, align 8
  %20 = alloca i32, align 4
  %21 = alloca ptr, align 8
  %22 = alloca i32, align 4
  store i64 %0, ptr %10, align 8, !tbaa !4
  store i64 %1, ptr %11, align 8, !tbaa !4
  store i64 %2, ptr %12, align 8, !tbaa !4
  store i64 %3, ptr %13, align 8, !tbaa !4
  store i64 %4, ptr %14, align 8, !tbaa !4
  store i64 %5, ptr %15, align 8, !tbaa !4
  store i64 %6, ptr %16, align 8, !tbaa !4
  store i32 %7, ptr %17, align 4, !tbaa !16
  call void @llvm.lifetime.start.p0(i64 12, ptr %18) #7
  call void @llvm.memcpy.p0.p0.i64(ptr align 1 %18, ptr align 1 @__const.Convert.DaysInMonth, i64 12, i1 false)
  call void @llvm.lifetime.start.p0(i64 8, ptr %19) #7
  call void @llvm.lifetime.start.p0(i64 4, ptr %20) #7
  call void @llvm.lifetime.start.p0(i64 8, ptr %21) #7
  %23 = load i64, ptr %12, align 8, !tbaa !4
  %24 = icmp slt i64 %23, 69
  br i1 %24, label %25, label %28

25:                                               ; preds = %8
  %26 = load i64, ptr %12, align 8, !tbaa !4
  %27 = add nsw i64 %26, 2000
  store i64 %27, ptr %12, align 8, !tbaa !4
  br label %35

28:                                               ; preds = %8
  %29 = load i64, ptr %12, align 8, !tbaa !4
  %30 = icmp slt i64 %29, 100
  br i1 %30, label %31, label %34

31:                                               ; preds = %28
  %32 = load i64, ptr %12, align 8, !tbaa !4
  %33 = add nsw i64 %32, 1900
  store i64 %33, ptr %12, align 8, !tbaa !4
  br label %34

34:                                               ; preds = %31, %28
  br label %35

35:                                               ; preds = %34, %25
  %36 = load i64, ptr %12, align 8, !tbaa !4
  %37 = srem i64 %36, 4
  %38 = icmp eq i64 %37, 0
  br i1 %38, label %39, label %49

39:                                               ; preds = %35
  %40 = load i64, ptr %12, align 8, !tbaa !4
  %41 = srem i64 %40, 100
  %42 = icmp ne i64 %41, 0
  br i1 %42, label %47, label %43

43:                                               ; preds = %39
  %44 = load i64, ptr %12, align 8, !tbaa !4
  %45 = srem i64 %44, 400
  %46 = icmp eq i64 %45, 0
  br label %47

47:                                               ; preds = %43, %39
  %48 = phi i1 [ true, %39 ], [ %46, %43 ]
  br label %49

49:                                               ; preds = %47, %35
  %50 = phi i1 [ false, %35 ], [ %48, %47 ]
  %51 = select i1 %50, i32 29, i32 28
  %52 = trunc i32 %51 to i8
  %53 = getelementptr inbounds [12 x i8], ptr %18, i64 0, i64 1
  store i8 %52, ptr %53, align 1, !tbaa !61
  %54 = load i64, ptr %12, align 8, !tbaa !4
  %55 = icmp slt i64 %54, 1970
  br i1 %55, label %96, label %56

56:                                               ; preds = %49
  %57 = load i64, ptr %12, align 8, !tbaa !4
  %58 = icmp sge i64 %57, 2038
  br i1 %58, label %96, label %59

59:                                               ; preds = %56
  %60 = load i64, ptr %10, align 8, !tbaa !4
  %61 = icmp slt i64 %60, 1
  br i1 %61, label %96, label %62

62:                                               ; preds = %59
  %63 = load i64, ptr %10, align 8, !tbaa !4
  %64 = icmp sgt i64 %63, 12
  br i1 %64, label %96, label %65

65:                                               ; preds = %62
  %66 = load i64, ptr %11, align 8, !tbaa !4
  %67 = icmp slt i64 %66, 1
  br i1 %67, label %96, label %68

68:                                               ; preds = %65
  %69 = load i64, ptr %11, align 8, !tbaa !4
  %70 = load i64, ptr %10, align 8, !tbaa !4
  %71 = add nsw i64 %70, -1
  store i64 %71, ptr %10, align 8, !tbaa !4
  %72 = trunc i64 %71 to i32
  %73 = sext i32 %72 to i64
  %74 = getelementptr inbounds [12 x i8], ptr %18, i64 0, i64 %73
  %75 = load i8, ptr %74, align 1, !tbaa !61
  %76 = sext i8 %75 to i64
  %77 = icmp sgt i64 %69, %76
  br i1 %77, label %96, label %78

78:                                               ; preds = %68
  %79 = load i64, ptr %13, align 8, !tbaa !4
  %80 = icmp slt i64 %79, 0
  br i1 %80, label %96, label %81

81:                                               ; preds = %78
  %82 = load i64, ptr %13, align 8, !tbaa !4
  %83 = icmp sgt i64 %82, 23
  br i1 %83, label %96, label %84

84:                                               ; preds = %81
  %85 = load i64, ptr %14, align 8, !tbaa !4
  %86 = icmp slt i64 %85, 0
  br i1 %86, label %96, label %87

87:                                               ; preds = %84
  %88 = load i64, ptr %14, align 8, !tbaa !4
  %89 = icmp sgt i64 %88, 59
  br i1 %89, label %96, label %90

90:                                               ; preds = %87
  %91 = load i64, ptr %15, align 8, !tbaa !4
  %92 = icmp slt i64 %91, 0
  br i1 %92, label %96, label %93

93:                                               ; preds = %90
  %94 = load i64, ptr %15, align 8, !tbaa !4
  %95 = icmp sgt i64 %94, 59
  br i1 %95, label %96, label %97

96:                                               ; preds = %93, %90, %87, %84, %81, %78, %68, %65, %62, %59, %56, %49
  store i64 -1, ptr %9, align 8
  store i32 1, ptr %22, align 4
  br label %165

97:                                               ; preds = %93
  %98 = load i64, ptr %11, align 8, !tbaa !4
  %99 = sub nsw i64 %98, 1
  store i64 %99, ptr %19, align 8, !tbaa !4
  store i32 0, ptr %20, align 4, !tbaa !16
  br label %100

100:                                              ; preds = %113, %97
  %101 = load i32, ptr %20, align 4, !tbaa !16
  %102 = sext i32 %101 to i64
  %103 = load i64, ptr %10, align 8, !tbaa !4
  %104 = icmp slt i64 %102, %103
  br i1 %104, label %105, label %116

105:                                              ; preds = %100
  %106 = load i32, ptr %20, align 4, !tbaa !16
  %107 = sext i32 %106 to i64
  %108 = getelementptr inbounds [12 x i8], ptr %18, i64 0, i64 %107
  %109 = load i8, ptr %108, align 1, !tbaa !61
  %110 = sext i8 %109 to i64
  %111 = load i64, ptr %19, align 8, !tbaa !4
  %112 = add nsw i64 %111, %110
  store i64 %112, ptr %19, align 8, !tbaa !4
  br label %113

113:                                              ; preds = %105
  %114 = load i32, ptr %20, align 4, !tbaa !16
  %115 = add nsw i32 %114, 1
  store i32 %115, ptr %20, align 4, !tbaa !16
  br label %100, !llvm.loop !79

116:                                              ; preds = %100
  store i32 1970, ptr %20, align 4, !tbaa !16
  br label %117

117:                                              ; preds = %131, %116
  %118 = load i32, ptr %20, align 4, !tbaa !16
  %119 = sext i32 %118 to i64
  %120 = load i64, ptr %12, align 8, !tbaa !4
  %121 = icmp slt i64 %119, %120
  br i1 %121, label %122, label %134

122:                                              ; preds = %117
  %123 = load i32, ptr %20, align 4, !tbaa !16
  %124 = srem i32 %123, 4
  %125 = icmp eq i32 %124, 0
  %126 = zext i1 %125 to i32
  %127 = add nsw i32 365, %126
  %128 = sext i32 %127 to i64
  %129 = load i64, ptr %19, align 8, !tbaa !4
  %130 = add nsw i64 %129, %128
  store i64 %130, ptr %19, align 8, !tbaa !4
  br label %131

131:                                              ; preds = %122
  %132 = load i32, ptr %20, align 4, !tbaa !16
  %133 = add nsw i32 %132, 1
  store i32 %133, ptr %20, align 4, !tbaa !16
  br label %117, !llvm.loop !80

134:                                              ; preds = %117
  %135 = load i64, ptr %19, align 8, !tbaa !4
  %136 = mul nsw i64 %135, 86400
  store i64 %136, ptr %19, align 8, !tbaa !4
  %137 = load i64, ptr %16, align 8, !tbaa !4
  %138 = load i64, ptr %19, align 8, !tbaa !4
  %139 = add nsw i64 %138, %137
  store i64 %139, ptr %19, align 8, !tbaa !4
  %140 = load i64, ptr %13, align 8, !tbaa !4
  %141 = mul nsw i64 %140, 3600
  %142 = load i64, ptr %14, align 8, !tbaa !4
  %143 = mul nsw i64 %142, 60
  %144 = add nsw i64 %141, %143
  %145 = load i64, ptr %15, align 8, !tbaa !4
  %146 = add nsw i64 %144, %145
  %147 = load i64, ptr %19, align 8, !tbaa !4
  %148 = add nsw i64 %147, %146
  store i64 %148, ptr %19, align 8, !tbaa !4
  %149 = call ptr @localtime(ptr noundef %19) #7
  store ptr %149, ptr %21, align 8, !tbaa !13
  %150 = load i32, ptr %17, align 4, !tbaa !16
  %151 = icmp eq i32 %150, 0
  br i1 %151, label %160, label %152

152:                                              ; preds = %134
  %153 = load i32, ptr %17, align 4, !tbaa !16
  %154 = icmp eq i32 %153, 2
  br i1 %154, label %155, label %163

155:                                              ; preds = %152
  %156 = load ptr, ptr %21, align 8, !tbaa !13
  %157 = getelementptr inbounds nuw %struct.tm, ptr %156, i32 0, i32 8
  %158 = load i32, ptr %157, align 8, !tbaa !18
  %159 = icmp ne i32 %158, 0
  br i1 %159, label %160, label %163

160:                                              ; preds = %155, %134
  %161 = load i64, ptr %19, align 8, !tbaa !4
  %162 = sub nsw i64 %161, 3600
  store i64 %162, ptr %19, align 8, !tbaa !4
  br label %163

163:                                              ; preds = %160, %155, %152
  %164 = load i64, ptr %19, align 8, !tbaa !4
  store i64 %164, ptr %9, align 8
  store i32 1, ptr %22, align 4
  br label %165

165:                                              ; preds = %163, %96
  call void @llvm.lifetime.end.p0(i64 8, ptr %21) #7
  call void @llvm.lifetime.end.p0(i64 4, ptr %20) #7
  call void @llvm.lifetime.end.p0(i64 8, ptr %19) #7
  call void @llvm.lifetime.end.p0(i64 12, ptr %18) #7
  %166 = load i64, ptr %9, align 8
  ret i64 %166
}