; Function Attrs: nounwind uwtable
define internal fastcc i64 @Convert(i64 noundef %0, i64 noundef %1, i64 noundef %2, i64 noundef %3, i64 noundef %4, i64 noundef %5, i64 noundef %6, i32 noundef %7) unnamed_addr #0 {
  %9 = alloca [12 x i8], align 1
  %10 = alloca i64, align 8
  call void @llvm.lifetime.start.p0(i64 12, ptr nonnull %9) #7
  call void @llvm.memcpy.p0.p0.i64(ptr noundef nonnull align 1 dereferenceable(12) %9, ptr noundef nonnull align 1 dereferenceable(12) @__const.Convert.DaysInMonth, i64 12, i1 false)
  call void @llvm.lifetime.start.p0(i64 8, ptr nonnull %10) #7
  %11 = icmp slt i64 %2, 69
  %12 = add nsw i64 %2, 2000
  %13 = icmp samesign ult i64 %2, 100
  %14 = add nuw nsw i64 %2, 1900
  %spec.select = select i1 %13, i64 %14, i64 %2
  %.056 = select i1 %11, i64 %12, i64 %spec.select
  %15 = and i64 %.056, 3
  %16 = icmp eq i64 %15, 0
  br i1 %16, label %17, label %23

17:                                               ; preds = %8
  %18 = srem i64 %.056, 100
  %.not = icmp eq i64 %18, 0
  br i1 %.not, label %19, label %23

19:                                               ; preds = %17
  %20 = srem i64 %.056, 400
  %21 = icmp eq i64 %20, 0
  %22 = select i1 %21, i8 29, i8 28
  br label %23

23:                                               ; preds = %17, %19, %8
  %24 = phi i8 [ 28, %8 ], [ 29, %17 ], [ %22, %19 ]
  %25 = getelementptr inbounds nuw i8, ptr %9, i64 1
  store i8 %24, ptr %25, align 1, !tbaa !15
  %26 = add i64 %.056, -2038
  %or.cond = icmp ult i64 %26, -68
  %27 = add i64 %0, -13
  %28 = icmp ult i64 %27, -12
  %or.cond5 = or i1 %28, %or.cond
  %29 = icmp slt i64 %1, 1
  %or.cond7 = or i1 %29, %or.cond5
  br i1 %or.cond7, label %68, label %30

30:                                               ; preds = %23
  %31 = add nsw i64 %0, -1
  %32 = getelementptr inbounds nuw [12 x i8], ptr %9, i64 0, i64 %31
  %33 = load i8, ptr %32, align 1, !tbaa !15
  %34 = sext i8 %33 to i64
  %35 = icmp sgt i64 %1, %34
  %36 = icmp ugt i64 %3, 23
  %or.cond11 = or i1 %36, %35
  %37 = icmp ugt i64 %4, 59
  %or.cond15 = or i1 %37, %or.cond11
  %38 = icmp ugt i64 %5, 59
  %or.cond19 = or i1 %38, %or.cond15
  br i1 %or.cond19, label %68, label %39

39:                                               ; preds = %30
  %40 = add nsw i64 %1, -1
  %.not71 = icmp eq i64 %31, 0
  br i1 %.not71, label %.preheader, label %.lr.ph

.preheader:                                       ; preds = %.lr.ph, %39
  %.lcssa = phi i64 [ %40, %39 ], [ %46, %.lr.ph ]
  %41 = icmp sgt i64 %.056, 1970
  br i1 %41, label %.lr.ph69, label %._crit_edge

.lr.ph:                                           ; preds = %39, %.lr.ph
  %indvars.iv = phi i64 [ %indvars.iv.next, %.lr.ph ], [ 0, %39 ]
  %42 = phi i64 [ %46, %.lr.ph ], [ %40, %39 ]
  %43 = getelementptr inbounds nuw [12 x i8], ptr %9, i64 0, i64 %indvars.iv
  %44 = load i8, ptr %43, align 1, !tbaa !15
  %45 = sext i8 %44 to i64
  %46 = add nsw i64 %42, %45
  %indvars.iv.next = add nuw nsw i64 %indvars.iv, 1
  %exitcond.not = icmp eq i64 %indvars.iv.next, %31
  br i1 %exitcond.not, label %.preheader, label %.lr.ph, !llvm.loop !40

.lr.ph69:                                         ; preds = %.preheader, %.lr.ph69
  %indvars.iv75 = phi i64 [ %indvars.iv.next76, %.lr.ph69 ], [ 1970, %.preheader ]
  %47 = phi i64 [ %51, %.lr.ph69 ], [ %.lcssa, %.preheader ]
  %48 = and i64 %indvars.iv75, 3
  %49 = icmp eq i64 %48, 0
  %50 = select i1 %49, i64 366, i64 365
  %51 = add nsw i64 %47, %50
  %indvars.iv.next76 = add nuw nsw i64 %indvars.iv75, 1
  %exitcond78.not = icmp eq i64 %indvars.iv.next76, %.056
  br i1 %exitcond78.not, label %._crit_edge, label %.lr.ph69, !llvm.loop !41

._crit_edge:                                      ; preds = %.lr.ph69, %.preheader
  %.lcssa67 = phi i64 [ %.lcssa, %.preheader ], [ %51, %.lr.ph69 ]
  %52 = mul nsw i64 %.lcssa67, 86400
  %53 = mul nuw nsw i64 %3, 3600
  %54 = mul nuw nsw i64 %4, 60
  %55 = add nuw nsw i64 %54, %53
  %56 = add nuw nsw i64 %55, %5
  %57 = add i64 %56, %6
  %58 = add i64 %57, %52
  store i64 %58, ptr %10, align 8, !tbaa !4
  %59 = call ptr @localtime(ptr noundef nonnull %10) #7
  switch i32 %7, label %66 [
    i32 0, label %63
    i32 2, label %60
  ]

60:                                               ; preds = %._crit_edge
  %61 = getelementptr inbounds nuw i8, ptr %59, i64 32
  %62 = load i32, ptr %61, align 8, !tbaa !42
  %.not64 = icmp eq i32 %62, 0
  br i1 %.not64, label %66, label %63

63:                                               ; preds = %._crit_edge, %60
  %64 = load i64, ptr %10, align 8, !tbaa !4
  %65 = add nsw i64 %64, -3600
  store i64 %65, ptr %10, align 8, !tbaa !4
  br label %66

66:                                               ; preds = %._crit_edge, %63, %60
  %67 = load i64, ptr %10, align 8, !tbaa !4
  br label %68

68:                                               ; preds = %23, %30, %66
  %.0 = phi i64 [ %67, %66 ], [ -1, %30 ], [ -1, %23 ]
  call void @llvm.lifetime.end.p0(i64 8, ptr nonnull %10) #7
  call void @llvm.lifetime.end.p0(i64 12, ptr nonnull %9) #7
  ret i64 %.0
}